target datalayout = "e-m:e-p270:32:32-p271:32:32-p272:64:64-i64:64-i128:128-f80:128-n8:16:32:64-S128"
target triple = "x86_64-pc-linux-gnu"

%struct.H5FL_reg_head_t = type { i8, i32, i32, ptr, i64, ptr }
%struct.H5EA__test_ctx_t = type { i32, ptr }

@H5_H5EA__test_ctx_t_reg_free_list = internal global %struct.H5FL_reg_head_t { i8 0, i32 0, i32 0, ptr @.str.3, i64 16, ptr null }, align 8
@.str.1 = private unnamed_addr constant [102 x i8] c"generated/home/dtcxzyw/WorkSpace/Projects/compilers/llvm-opt-benchmark/bench/hdf5/hdf5/src/H5EAtest.c\00", align 1
@__func__.H5EA__test_crt_context = private unnamed_addr constant [23 x i8] c"H5EA__test_crt_context\00", align 1
@H5E_EARRAY_g = external global i64, align 8
@H5E_CANTALLOC_g = external global i64, align 8
@.str.2 = private unnamed_addr constant [56 x i8] c"can't allocate extensible array client callback context\00", align 1

; Function Attrs: nounwind uwtable
define internal ptr @H5EA__test_crt_context(ptr noundef %0) #0 {
  %2 = alloca ptr, align 8
  %3 = alloca ptr, align 8
  %4 = alloca ptr, align 8
  %5 = alloca ptr, align 8
  %6 = alloca i8, align 1
  store ptr %0, ptr %2, align 8
  %7 = load ptr, ptr %2, align 8
  store ptr %7, ptr %4, align 8
  store ptr null, ptr %5, align 8
  store i8 0, ptr %6, align 1
  %8 = call noalias ptr @H5FL_reg_malloc(ptr noundef @H5_H5EA__test_ctx_t_reg_free_list)
  store ptr %8, ptr %3, align 8
  %9 = icmp eq ptr null, %8
  br i1 %9, label %10, label %25

10:                                               ; preds = %1
  br label %11

11:                                               ; preds = %10
  br label %12

12:                                               ; preds = %11
  br label %13

13:                                               ; preds = %12
  %14 = load i64, ptr @H5E_EARRAY_g, align 8
  %15 = load i64, ptr @H5E_CANTALLOC_g, align 8
  %16 = call i32 (ptr, ptr, i32, i64, i64, ptr, ...) @H5E_printf_stack(ptr noundef @.str.1, ptr noundef @__func__.H5EA__test_crt_context, i32 noundef 128, i64 noundef %14, i64 noundef %15, ptr noundef @.str.2)
  br label %17

17:                                               ; preds = %13
  store i8 1, ptr %6, align 1
  %18 = load i8, ptr %6, align 1
  %19 = trunc i8 %18 to i1
  %20 = zext i1 %19 to i8
  store i8 %20, ptr %6, align 1
  br label %21

21:                                               ; preds = %17
  br label %22

22:                                               ; preds = %21
  store ptr null, ptr %5, align 8
  br label %32

23:                                               ; No predecessors!
  br label %24

24:                                               ; preds = %23
  br label %25

25:                                               ; preds = %24, %1
  %26 = load ptr, ptr %3, align 8
  %27 = getelementptr inbounds %struct.H5EA__test_ctx_t, ptr %26, i32 0, i32 0
  store i32 42, ptr %27, align 8
  %28 = load ptr, ptr %4, align 8
  %29 = load ptr, ptr %3, align 8
  %30 = getelementptr inbounds %struct.H5EA__test_ctx_t, ptr %29, i32 0, i32 1
  store ptr %28, ptr %30, align 8
  %31 = load ptr, ptr %3, align 8
  store ptr %31, ptr %5, align 8
  br label %32

32:                                               ; preds = %25, %22
  %33 = load ptr, ptr %5, align 8
  ret ptr %33
}