; Function Attrs: nounwind uwtable
define internal noalias ptr @H5EA__test_crt_context(ptr noundef %0) #0 {
  %2 = tail call noalias ptr @H5FL_reg_malloc(ptr noundef nonnull @H5_H5EA__test_ctx_t_reg_free_list) #7
  %3 = icmp eq ptr %2, null
  br i1 %3, label %4, label %8

4:                                                ; preds = %1
  %5 = load i64, ptr @H5E_EARRAY_g, align 8
  %6 = load i64, ptr @H5E_CANTALLOC_g, align 8
  %7 = tail call i32 (ptr, ptr, i32, i64, i64, ptr, ...) @H5E_printf_stack(ptr noundef nonnull @.str.1, ptr noundef nonnull @__func__.H5EA__test_crt_context, i32 noundef 128, i64 noundef %5, i64 noundef %6, ptr noundef nonnull @.str.2) #7
  br label %10

8:                                                ; preds = %1
  store i32 42, ptr %2, align 8
  %9 = getelementptr inbounds nuw i8, ptr %2, i64 8
  store ptr %0, ptr %9, align 8
  br label %10

10:                                               ; preds = %8, %4
  ret ptr %2
}